target datalayout = "e-m:e-p270:32:32-p271:32:32-p272:64:64-i64:64-i128:128-f80:128-n8:16:32:64-S128"
target triple = "x86_64-unknown-linux-gnu"

%struct.IDEBus = type { %struct.BusState, ptr, ptr, [2 x %struct.IDEState], ptr, i32, i32, ptr, i8, i8, ptr, i32, i8, i64, i32, %struct.PortioList, %struct.PortioList, ptr }
%struct.BusState = type { %struct.Object, ptr, ptr, ptr, i32, i8, i8, i32, %union.BusChildHead, %struct.BusStateEntry, %struct.ResettableState }
%struct.Object = type { ptr, ptr, ptr, i32, ptr }
%union.BusChildHead = type { %struct.QTailQLink }
%struct.QTailQLink = type { ptr, ptr }
%struct.BusStateEntry = type { ptr, ptr }
%struct.ResettableState = type { i32, i8, i8 }
%struct.IDEState = type { ptr, i8, i32, i32, i32, i32, i32, i32, i32, i64, i32, i32, [512 x i8], i32, [21 x i8], [41 x i8], i64, i8, i8, i32, i8, i8, i8, i8, i8, i8, i8, i8, i8, i8, i8, i8, i8, ptr, [9 x i8], %struct.unreported_events, i8, i8, i8, i8, i8, i32, i32, i32, i32, i32, i32, %struct.BlockAcctCookie, ptr, %struct.QEMUIOVector, %struct.anon.1, i64, i32, %struct.QEMUSGList, i32, ptr, ptr, ptr, ptr, i32, i32, i32, i8, ptr, i32, i8, i32, ptr, i32, i32, i8, i8, i32, i8, ptr, i32 }
%struct.unreported_events = type { i8, i8 }
%struct.BlockAcctCookie = type { i64, i64, i32 }
%struct.QEMUIOVector = type { ptr, i32, %union.anon }
%union.anon = type { %struct.anon }
%struct.anon = type { i32, %struct.iovec }
%struct.iovec = type { ptr, i64 }
%struct.anon.1 = type { ptr }
%struct.QEMUSGList = type { ptr, i32, i32, i64, ptr, ptr }
%struct.PortioList = type { ptr, ptr, ptr, i32, ptr, ptr, ptr, i8 }

@.str = private unnamed_addr constant [4 x i8] c"IDE\00", align 1

; Function Attrs: nounwind sspstrong uwtable
define dso_local void @ide_bus_init(ptr noundef %idebus, i64 noundef %idebus_size, ptr noundef %dev, i32 noundef %bus_id, i32 noundef %max_units) #0 {
entry:
  %idebus.addr = alloca ptr, align 8
  %idebus_size.addr = alloca i64, align 8
  %dev.addr = alloca ptr, align 8
  %bus_id.addr = alloca i32, align 4
  %max_units.addr = alloca i32, align 4
  store ptr %idebus, ptr %idebus.addr, align 8
  store i64 %idebus_size, ptr %idebus_size.addr, align 8
  store ptr %dev, ptr %dev.addr, align 8
  store i32 %bus_id, ptr %bus_id.addr, align 4
  store i32 %max_units, ptr %max_units.addr, align 4
  %0 = load ptr, ptr %idebus.addr, align 8
  %1 = load i64, ptr %idebus_size.addr, align 8
  %2 = load ptr, ptr %dev.addr, align 8
  call void @qbus_init(ptr noundef %0, i64 noundef %1, ptr noundef @.str, ptr noundef %2, ptr noundef null)
  %3 = load i32, ptr %bus_id.addr, align 4
  %4 = load ptr, ptr %idebus.addr, align 8
  %bus_id1 = getelementptr inbounds %struct.IDEBus, ptr %4, i32 0, i32 5
  store i32 %3, ptr %bus_id1, align 8
  %5 = load i32, ptr %max_units.addr, align 4
  %6 = load ptr, ptr %idebus.addr, align 8
  %max_units2 = getelementptr inbounds %struct.IDEBus, ptr %6, i32 0, i32 6
  store i32 %5, ptr %max_units2, align 4
  ret void
}