; Function Attrs: nounwind sspstrong uwtable
define dso_local void @ide_bus_init(ptr noundef %idebus, i64 noundef %idebus_size, ptr noundef %dev, i32 noundef %bus_id, i32 noundef %max_units) local_unnamed_addr #0 {
entry:
  tail call void @qbus_init(ptr noundef %idebus, i64 noundef %idebus_size, ptr noundef nonnull @.str, ptr noundef %dev, ptr noundef null) #6
  %bus_id1 = getelementptr inbounds nuw i8, ptr %idebus, i64 2112
  store i32 %bus_id, ptr %bus_id1, align 8
  %max_units2 = getelementptr inbounds nuw i8, ptr %idebus, i64 2116
  store i32 %max_units, ptr %max_units2, align 4
  ret void
}